target datalayout = "e-m:e-p270:32:32-p271:32:32-p272:64:64-i64:64-i128:128-f80:128-n8:16:32:64-S128"
target triple = "x86_64-pc-linux-gnu"

%struct.hashfile = type { i32, i32, i32, %union.git_hash_ctx, i64, ptr, ptr, i32, i32, i64, ptr, ptr, ptr, i32 }
%union.git_hash_ctx = type { %struct.SHA1_CTX }
%struct.SHA1_CTX = type { i64, [5 x i32], [64 x i8], i32, i32, i32, i32, i32, ptr, [5 x i32], [5 x i32], [80 x i32], [80 x i32], [80 x [5 x i32]] }
%struct.git_hash_algo = type { ptr, i32, i64, i64, i64, ptr, ptr, ptr, ptr, ptr, ptr, ptr, ptr, ptr }
%struct.repository = type { ptr, ptr, ptr, ptr, ptr, %struct.strmap, %struct.strmap, %struct.repo_path_cache, ptr, ptr, ptr, ptr, %struct.repo_settings, ptr, ptr, ptr, ptr, ptr, ptr, i32, i32, i32, ptr, ptr, i32, i32, i8 }
%struct.strmap = type { %struct.hashmap, ptr, i8 }
%struct.hashmap = type { ptr, ptr, ptr, i32, i32, i32, i32, i8 }
%struct.repo_path_cache = type { ptr, ptr, ptr, ptr, ptr, ptr, ptr }
%struct.repo_settings = type { i32, i32, i32, i32, i32, i32, i32, i32, i32, i32, i32, i32, ptr, i32, i32, i32, i32, i32, i32, i32, i64, i64, i64 }

@.str.3 = private unnamed_addr constant [10 x i8] c"/dev/null\00", align 1
@the_repository = external global ptr, align 8

; Function Attrs: nounwind uwtable
define internal ptr @hashfd_internal(i32 noundef %0, ptr noundef %1, ptr noundef %2, i64 noundef %3) #0 {
  %5 = alloca i32, align 4
  %6 = alloca ptr, align 8
  %7 = alloca ptr, align 8
  %8 = alloca i64, align 8
  %9 = alloca ptr, align 8
  store i32 %0, ptr %5, align 4, !tbaa !16
  store ptr %1, ptr %6, align 8, !tbaa !30
  store ptr %2, ptr %7, align 8, !tbaa !39
  store i64 %3, ptr %8, align 8, !tbaa !40
  call void @llvm.lifetime.start.p0(i64 8, ptr %9) #10
  %10 = call ptr @xmalloc(i64 noundef 2488)
  store ptr %10, ptr %9, align 8, !tbaa !4
  %11 = load i32, ptr %5, align 4, !tbaa !16
  %12 = load ptr, ptr %9, align 8, !tbaa !4
  %13 = getelementptr inbounds nuw %struct.hashfile, ptr %12, i32 0, i32 0
  store i32 %11, ptr %13, align 8, !tbaa !25
  %14 = load ptr, ptr %9, align 8, !tbaa !4
  %15 = getelementptr inbounds nuw %struct.hashfile, ptr %14, i32 0, i32 1
  store i32 -1, ptr %15, align 4, !tbaa !24
  %16 = load ptr, ptr %9, align 8, !tbaa !4
  %17 = getelementptr inbounds nuw %struct.hashfile, ptr %16, i32 0, i32 2
  store i32 0, ptr %17, align 8, !tbaa !9
  %18 = load ptr, ptr %9, align 8, !tbaa !4
  %19 = getelementptr inbounds nuw %struct.hashfile, ptr %18, i32 0, i32 4
  store i64 0, ptr %19, align 8, !tbaa !27
  %20 = load ptr, ptr %7, align 8, !tbaa !39
  %21 = load ptr, ptr %9, align 8, !tbaa !4
  %22 = getelementptr inbounds nuw %struct.hashfile, ptr %21, i32 0, i32 5
  store ptr %20, ptr %22, align 8, !tbaa !28
  %23 = load ptr, ptr %6, align 8, !tbaa !30
  %24 = load ptr, ptr %9, align 8, !tbaa !4
  %25 = getelementptr inbounds nuw %struct.hashfile, ptr %24, i32 0, i32 6
  store ptr %23, ptr %25, align 8, !tbaa !26
  %26 = load ptr, ptr %9, align 8, !tbaa !4
  %27 = getelementptr inbounds nuw %struct.hashfile, ptr %26, i32 0, i32 7
  store i32 0, ptr %27, align 8, !tbaa !35
  %28 = load ptr, ptr %9, align 8, !tbaa !4
  %29 = getelementptr inbounds nuw %struct.hashfile, ptr %28, i32 0, i32 13
  store i32 0, ptr %29, align 8, !tbaa !17
  %30 = load ptr, ptr @the_repository, align 8, !tbaa !41
  %31 = getelementptr inbounds nuw %struct.repository, ptr %30, i32 0, i32 17
  %32 = load ptr, ptr %31, align 8, !tbaa !43
  %33 = call ptr @unsafe_hash_algo(ptr noundef %32)
  %34 = load ptr, ptr %9, align 8, !tbaa !4
  %35 = getelementptr inbounds nuw %struct.hashfile, ptr %34, i32 0, i32 12
  store ptr %33, ptr %35, align 8, !tbaa !18
  %36 = load ptr, ptr %9, align 8, !tbaa !4
  %37 = getelementptr inbounds nuw %struct.hashfile, ptr %36, i32 0, i32 12
  %38 = load ptr, ptr %37, align 8, !tbaa !18
  %39 = getelementptr inbounds nuw %struct.git_hash_algo, ptr %38, i32 0, i32 5
  %40 = load ptr, ptr %39, align 8, !tbaa !60
  %41 = load ptr, ptr %9, align 8, !tbaa !4
  %42 = getelementptr inbounds nuw %struct.hashfile, ptr %41, i32 0, i32 3
  call void %40(ptr noundef %42)
  %43 = load i64, ptr %8, align 8, !tbaa !40
  %44 = load ptr, ptr %9, align 8, !tbaa !4
  %45 = getelementptr inbounds nuw %struct.hashfile, ptr %44, i32 0, i32 9
  store i64 %43, ptr %45, align 8, !tbaa !34
  %46 = load i64, ptr %8, align 8, !tbaa !40
  %47 = call ptr @xmalloc(i64 noundef %46)
  %48 = load ptr, ptr %9, align 8, !tbaa !4
  %49 = getelementptr inbounds nuw %struct.hashfile, ptr %48, i32 0, i32 10
  store ptr %47, ptr %49, align 8, !tbaa !22
  %50 = load ptr, ptr %9, align 8, !tbaa !4
  %51 = getelementptr inbounds nuw %struct.hashfile, ptr %50, i32 0, i32 11
  store ptr null, ptr %51, align 8, !tbaa !29
  %52 = load ptr, ptr %9, align 8, !tbaa !4
  call void @llvm.lifetime.end.p0(i64 8, ptr %9) #10
  ret ptr %52
}

; Function Attrs: nounwind uwtable
define dso_local ptr @hashfd(i32 noundef %0, ptr noundef %1) #0 {
  %3 = alloca i32, align 4
  %4 = alloca ptr, align 8
  store i32 %0, ptr %3, align 4, !tbaa !16
  store ptr %1, ptr %4, align 8, !tbaa !30
  %5 = load i32, ptr %3, align 4, !tbaa !16
  %6 = load ptr, ptr %4, align 8, !tbaa !30
  %7 = call ptr @hashfd_internal(i32 noundef %5, ptr noundef %6, ptr noundef null, i64 noundef 131072)
  ret ptr %7
}

; Function Attrs: nounwind uwtable
define dso_local ptr @hashfd_check(ptr noundef %0) #0 {
  %2 = alloca ptr, align 8
  %3 = alloca i32, align 4
  %4 = alloca i32, align 4
  %5 = alloca ptr, align 8
  store ptr %0, ptr %2, align 8, !tbaa !30
  call void @llvm.lifetime.start.p0(i64 4, ptr %3) #10
  call void @llvm.lifetime.start.p0(i64 4, ptr %4) #10
  call void @llvm.lifetime.start.p0(i64 8, ptr %5) #10
  %6 = call i32 (ptr, i32, ...) @xopen(ptr noundef @.str.3, i32 noundef 1)
  store i32 %6, ptr %3, align 4, !tbaa !16
  %7 = load ptr, ptr %2, align 8, !tbaa !30
  %8 = call i32 (ptr, i32, ...) @xopen(ptr noundef %7, i32 noundef 0)
  store i32 %8, ptr %4, align 4, !tbaa !16
  %9 = load i32, ptr %3, align 4, !tbaa !16
  %10 = load ptr, ptr %2, align 8, !tbaa !30
  %11 = call ptr @hashfd(i32 noundef %9, ptr noundef %10)
  store ptr %11, ptr %5, align 8, !tbaa !4
  %12 = load i32, ptr %4, align 4, !tbaa !16
  %13 = load ptr, ptr %5, align 8, !tbaa !4
  %14 = getelementptr inbounds nuw %struct.hashfile, ptr %13, i32 0, i32 1
  store i32 %12, ptr %14, align 4, !tbaa !24
  %15 = load ptr, ptr %5, align 8, !tbaa !4
  %16 = getelementptr inbounds nuw %struct.hashfile, ptr %15, i32 0, i32 9
  %17 = load i64, ptr %16, align 8, !tbaa !34
  %18 = call ptr @xmalloc(i64 noundef %17)
  %19 = load ptr, ptr %5, align 8, !tbaa !4
  %20 = getelementptr inbounds nuw %struct.hashfile, ptr %19, i32 0, i32 11
  store ptr %18, ptr %20, align 8, !tbaa !29
  %21 = load ptr, ptr %5, align 8, !tbaa !4
  call void @llvm.lifetime.end.p0(i64 8, ptr %5) #10
  call void @llvm.lifetime.end.p0(i64 4, ptr %4) #10
  call void @llvm.lifetime.end.p0(i64 4, ptr %3) #10
  ret ptr %21
}