; Function Attrs: nounwind uwtable
define dso_local noundef ptr @hashfd_check(ptr noundef %0) local_unnamed_addr #0 {
  %2 = tail call i32 (ptr, i32, ...) @xopen(ptr noundef nonnull @.str.3, i32 noundef 1) #13
  %3 = tail call i32 (ptr, i32, ...) @xopen(ptr noundef %0, i32 noundef 0) #13
  %4 = tail call ptr @xmalloc(i64 noundef 2488) #13
  store i32 %2, ptr %4, align 8, !tbaa !23
  %5 = getelementptr inbounds nuw i8, ptr %4, i64 4
  store i32 -1, ptr %5, align 4, !tbaa !20
  %6 = getelementptr inbounds nuw i8, ptr %4, i64 8
  store i32 0, ptr %6, align 8, !tbaa !4
  %7 = getelementptr inbounds nuw i8, ptr %4, i64 2416
  %8 = getelementptr inbounds nuw i8, ptr %4, i64 2432
  tail call void @llvm.memset.p0.i64(ptr noundef nonnull align 8 dereferenceable(16) %7, i8 0, i64 16, i1 false)
  store ptr %0, ptr %8, align 8, !tbaa !22
  %9 = getelementptr inbounds nuw i8, ptr %4, i64 2440
  store i32 0, ptr %9, align 8, !tbaa !30
  %10 = getelementptr inbounds nuw i8, ptr %4, i64 2480
  store i32 0, ptr %10, align 8, !tbaa !14
  %11 = load ptr, ptr @the_repository, align 8, !tbaa !34
  %12 = getelementptr inbounds nuw i8, ptr %11, i64 400
  %13 = load ptr, ptr %12, align 8, !tbaa !36
  %14 = tail call ptr @unsafe_hash_algo(ptr noundef %13) #13
  %15 = getelementptr inbounds nuw i8, ptr %4, i64 2472
  store ptr %14, ptr %15, align 8, !tbaa !15
  %16 = getelementptr inbounds nuw i8, ptr %14, i64 40
  %17 = load ptr, ptr %16, align 8, !tbaa !53
  %18 = getelementptr inbounds nuw i8, ptr %4, i64 16
  tail call void %17(ptr noundef nonnull %18) #13
  %19 = getelementptr inbounds nuw i8, ptr %4, i64 2448
  store i64 131072, ptr %19, align 8, !tbaa !29
  %20 = tail call ptr @xmalloc(i64 noundef 131072) #13
  %21 = getelementptr inbounds nuw i8, ptr %4, i64 2456
  store ptr %20, ptr %21, align 8, !tbaa !19
  %22 = getelementptr inbounds nuw i8, ptr %4, i64 2464
  store ptr null, ptr %22, align 8, !tbaa !21
  store i32 %3, ptr %5, align 4, !tbaa !20
  %23 = load i64, ptr %19, align 8, !tbaa !29
  %24 = tail call ptr @xmalloc(i64 noundef %23) #13
  store ptr %24, ptr %22, align 8, !tbaa !21
  ret ptr %4
}